target datalayout = "e-m:e-p270:32:32-p271:32:32-p272:64:64-i64:64-i128:128-f80:128-n8:16:32:64-S128"
target triple = "x86_64-pc-linux-gnu"

%struct.expert_field = type { i32, i32 }
%struct._packet_info = type { ptr, ptr, i32, i32, %struct.nstime_t, %struct.nstime_t, %struct.nstime_t, i8, ptr, ptr, ptr, ptr, %struct._address, %struct._address, %struct._address, %struct._address, %struct._address, %struct._address, i32, ptr, i8, [3 x i8], %struct.anon, i32, i32, i32, i32, ptr, i8, ptr, ptr, i16, i16, i32, i32, i16, i32, i32, ptr, ptr, ptr, i8, i8, i16, i16, i16, i32, i16, i16, ptr, ptr, ptr, ptr, ptr, i32, i32 }
%struct.nstime_t = type { i64, i32 }
%struct._address = type { i32, i32, ptr, ptr }
%struct.anon = type { i8, [3 x i8] }

@hf_uftp_destlist = internal global i32 0, align 4
@hf_uftp_dest = internal global i32 0, align 4
@hf_uftp_fileinfoack = internal global i32 0, align 4
@hf_uftp_fileinfoack_func = internal global i32 0, align 4
@hf_uftp_fileinfoack_hlen = internal global i32 0, align 4
@hf_uftp_fileinfoack_file_id = internal global i32 0, align 4
@hf_uftp_fileinfoack_flags = internal global i32 0, align 4
@hf_uftp_fileinfoack_reserved = internal global i32 0, align 4
@hf_uftp_fileinfoack_tstamp = internal global i32 0, align 4
@ett_uftp_fileinfoack = internal global i32 0, align 4
@ett_uftp_fileinfoack_flags = internal global i32 0, align 4
@ett_uftp_destlist = internal global i32 0, align 4
@ei_uftp_length_invalid = internal global %struct.expert_field zeroinitializer, align 4
@.str.416 = private unnamed_addr constant [19 x i8] c"Invalid length: %d\00", align 1
@.str.417 = private unnamed_addr constant [36 x i8] c"Invalid length, len = %d, hlen = %d\00", align 1
@.str.418 = private unnamed_addr constant [14 x i8] c"%d bytes (%d)\00", align 1
@.str.425 = private unnamed_addr constant [6 x i8] c":%04X\00", align 1
@fileinfoack_flags = internal constant [3 x ptr] [ptr @hf_uftp_fileinfoack_flags_partial, ptr @hf_uftp_fileinfoack_flags_reserved, ptr null], align 16

; Function Attrs: nounwind null_pointer_is_valid sspstrong uwtable
define internal { i64, i32 } @usec_to_nstime(i64 noundef %0) #3 {
  %2 = alloca %struct.nstime_t, align 8
  %3 = alloca i64, align 8
  store i64 %0, ptr %3, align 8
  %4 = load i64, ptr %3, align 8
  %5 = udiv i64 %4, 1000000
  %6 = getelementptr inbounds nuw %struct.nstime_t, ptr %2, i32 0, i32 0
  store i64 %5, ptr %6, align 8
  %7 = load i64, ptr %3, align 8
  %8 = urem i64 %7, 1000000
  %9 = mul i64 %8, 1000
  %10 = trunc i64 %9 to i32
  %11 = getelementptr inbounds nuw %struct.nstime_t, ptr %2, i32 0, i32 1
  store i32 %10, ptr %11, align 8
  %12 = load { i64, i32 }, ptr %2, align 8
  ret { i64, i32 } %12
}

; Function Attrs: null_pointer_is_valid sspstrong uwtable
define internal void @dissect_uftp_fileinfoack(ptr noundef %0, ptr noundef %1, ptr noundef %2) #0 {
  %4 = alloca ptr, align 8
  %5 = alloca ptr, align 8
  %6 = alloca ptr, align 8
  %7 = alloca ptr, align 8
  %8 = alloca ptr, align 8
  %9 = alloca ptr, align 8
  %10 = alloca ptr, align 8
  %11 = alloca i32, align 4
  %12 = alloca i32, align 4
  %13 = alloca i16, align 2
  %14 = alloca i16, align 2
  %15 = alloca i16, align 2
  %16 = alloca %struct.nstime_t, align 8
  %17 = alloca i32, align 4
  %18 = alloca %struct.nstime_t, align 8
  store ptr %0, ptr %4, align 8
  store ptr %1, ptr %5, align 8
  store ptr %2, ptr %6, align 8
  call void @llvm.lifetime.start.p0(i64 8, ptr %7) #6
  store ptr null, ptr %7, align 8
  call void @llvm.lifetime.start.p0(i64 8, ptr %8) #6
  store ptr null, ptr %8, align 8
  call void @llvm.lifetime.start.p0(i64 8, ptr %9) #6
  store ptr null, ptr %9, align 8
  call void @llvm.lifetime.start.p0(i64 8, ptr %10) #6
  store ptr null, ptr %10, align 8
  call void @llvm.lifetime.start.p0(i64 4, ptr %11) #6
  store i32 0, ptr %11, align 4
  call void @llvm.lifetime.start.p0(i64 4, ptr %12) #6
  call void @llvm.lifetime.start.p0(i64 2, ptr %13) #6
  call void @llvm.lifetime.start.p0(i64 2, ptr %14) #6
  call void @llvm.lifetime.start.p0(i64 2, ptr %15) #6
  call void @llvm.lifetime.start.p0(i64 16, ptr %16) #6
  %19 = load ptr, ptr %4, align 8
  %20 = call i32 @tvb_reported_length(ptr noundef %19)
  %21 = icmp ult i32 %20, 16
  br i1 %21, label %22, label %30

22:                                               ; preds = %3
  %23 = load ptr, ptr %6, align 8
  %24 = load ptr, ptr %5, align 8
  %25 = load ptr, ptr %4, align 8
  %26 = load i32, ptr %11, align 4
  %27 = load ptr, ptr %4, align 8
  %28 = call i32 @tvb_reported_length(ptr noundef %27)
  %29 = call ptr (ptr, ptr, ptr, ptr, i32, i32, ptr, ...) @proto_tree_add_expert_format(ptr noundef %23, ptr noundef %24, ptr noundef @ei_uftp_length_invalid, ptr noundef %25, i32 noundef %26, i32 noundef -1, ptr noundef @.str.416, i32 noundef %28)
  store i32 1, ptr %17, align 4
  br label %166

30:                                               ; preds = %3
  %31 = load ptr, ptr %4, align 8
  %32 = call zeroext i8 @tvb_get_uint8(ptr noundef %31, i32 noundef 1)
  %33 = zext i8 %32 to i32
  %34 = mul i32 %33, 4
  store i32 %34, ptr %12, align 4
  %35 = load ptr, ptr %4, align 8
  %36 = call i32 @tvb_reported_length(ptr noundef %35)
  %37 = load i32, ptr %12, align 4
  %38 = icmp slt i32 %36, %37
  br i1 %38, label %42, label %39

39:                                               ; preds = %30
  %40 = load i32, ptr %12, align 4
  %41 = icmp slt i32 %40, 16
  br i1 %41, label %42, label %51

42:                                               ; preds = %39, %30
  %43 = load ptr, ptr %6, align 8
  %44 = load ptr, ptr %5, align 8
  %45 = load ptr, ptr %4, align 8
  %46 = load i32, ptr %11, align 4
  %47 = load ptr, ptr %4, align 8
  %48 = call i32 @tvb_reported_length(ptr noundef %47)
  %49 = load i32, ptr %12, align 4
  %50 = call ptr (ptr, ptr, ptr, ptr, i32, i32, ptr, ...) @proto_tree_add_expert_format(ptr noundef %43, ptr noundef %44, ptr noundef @ei_uftp_length_invalid, ptr noundef %45, i32 noundef %46, i32 noundef -1, ptr noundef @.str.417, i32 noundef %48, i32 noundef %49)
  store i32 1, ptr %17, align 4
  br label %166

51:                                               ; preds = %39
  %52 = load ptr, ptr %4, align 8
  %53 = call zeroext i16 @tvb_get_ntohs(ptr noundef %52, i32 noundef 2)
  store i16 %53, ptr %13, align 2
  %54 = load i16, ptr %13, align 2
  %55 = zext i16 %54 to i32
  %56 = icmp sgt i32 %55, 0
  br i1 %56, label %57, label %63

57:                                               ; preds = %51
  %58 = load ptr, ptr %5, align 8
  %59 = getelementptr inbounds nuw %struct._packet_info, ptr %58, i32 0, i32 1
  %60 = load ptr, ptr %59, align 8
  %61 = load i16, ptr %13, align 2
  %62 = zext i16 %61 to i32
  call void (ptr, i32, ptr, ...) @col_append_fstr(ptr noundef %60, i32 noundef 25, ptr noundef @.str.425, i32 noundef %62)
  br label %63

63:                                               ; preds = %57, %51
  %64 = load ptr, ptr %6, align 8
  %65 = load i32, ptr @hf_uftp_fileinfoack, align 4
  %66 = load ptr, ptr %4, align 8
  %67 = load i32, ptr %11, align 4
  %68 = call ptr @proto_tree_add_item(ptr noundef %64, i32 noundef %65, ptr noundef %66, i32 noundef %67, i32 noundef -1, i32 noundef 0)
  store ptr %68, ptr %7, align 8
  %69 = load ptr, ptr %7, align 8
  %70 = load i32, ptr @ett_uftp_fileinfoack, align 4
  %71 = call ptr @proto_item_add_subtree(ptr noundef %69, i32 noundef %70)
  store ptr %71, ptr %9, align 8
  %72 = load ptr, ptr %9, align 8
  %73 = load i32, ptr @hf_uftp_fileinfoack_func, align 4
  %74 = load ptr, ptr %4, align 8
  %75 = load i32, ptr %11, align 4
  %76 = call ptr @proto_tree_add_item(ptr noundef %72, i32 noundef %73, ptr noundef %74, i32 noundef %75, i32 noundef 1, i32 noundef 0)
  %77 = load i32, ptr %11, align 4
  %78 = add i32 %77, 1
  store i32 %78, ptr %11, align 4
  %79 = load ptr, ptr %9, align 8
  %80 = load i32, ptr @hf_uftp_fileinfoack_hlen, align 4
  %81 = load ptr, ptr %4, align 8
  %82 = load i32, ptr %11, align 4
  %83 = load i32, ptr %12, align 4
  %84 = load i32, ptr %12, align 4
  %85 = load i32, ptr %12, align 4
  %86 = sdiv i32 %85, 4
  %87 = call ptr (ptr, i32, ptr, i32, i32, i32, ptr, ...) @proto_tree_add_uint_format_value(ptr noundef %79, i32 noundef %80, ptr noundef %81, i32 noundef %82, i32 noundef 1, i32 noundef %83, ptr noundef @.str.418, i32 noundef %84, i32 noundef %86)
  %88 = load i32, ptr %11, align 4
  %89 = add i32 %88, 1
  store i32 %89, ptr %11, align 4
  %90 = load ptr, ptr %9, align 8
  %91 = load i32, ptr @hf_uftp_fileinfoack_file_id, align 4
  %92 = load ptr, ptr %4, align 8
  %93 = load i32, ptr %11, align 4
  %94 = call ptr @proto_tree_add_item(ptr noundef %90, i32 noundef %91, ptr noundef %92, i32 noundef %93, i32 noundef 2, i32 noundef 0)
  %95 = load i32, ptr %11, align 4
  %96 = add i32 %95, 2
  store i32 %96, ptr %11, align 4
  %97 = load ptr, ptr %9, align 8
  %98 = load ptr, ptr %4, align 8
  %99 = load i32, ptr %11, align 4
  %100 = load i32, ptr @hf_uftp_fileinfoack_flags, align 4
  %101 = load i32, ptr @ett_uftp_fileinfoack_flags, align 4
  %102 = call ptr @proto_tree_add_bitmask(ptr noundef %97, ptr noundef %98, i32 noundef %99, i32 noundef %100, i32 noundef %101, ptr noundef @fileinfoack_flags, i32 noundef 0)
  %103 = load i32, ptr %11, align 4
  %104 = add i32 %103, 1
  store i32 %104, ptr %11, align 4
  %105 = load ptr, ptr %9, align 8
  %106 = load i32, ptr @hf_uftp_fileinfoack_reserved, align 4
  %107 = load ptr, ptr %4, align 8
  %108 = load i32, ptr %11, align 4
  %109 = call ptr @proto_tree_add_item(ptr noundef %105, i32 noundef %106, ptr noundef %107, i32 noundef %108, i32 noundef 3, i32 noundef 0)
  %110 = load i32, ptr %11, align 4
  %111 = add i32 %110, 3
  store i32 %111, ptr %11, align 4
  call void @llvm.lifetime.start.p0(i64 16, ptr %18) #6
  %112 = load ptr, ptr %4, align 8
  %113 = load i32, ptr %11, align 4
  %114 = call i64 @tvb_get_ntoh64(ptr noundef %112, i32 noundef %113)
  %115 = call { i64, i32 } @usec_to_nstime(i64 noundef %114)
  %116 = getelementptr inbounds nuw { i64, i32 }, ptr %18, i32 0, i32 0
  %117 = extractvalue { i64, i32 } %115, 0
  store i64 %117, ptr %116, align 8
  %118 = getelementptr inbounds nuw { i64, i32 }, ptr %18, i32 0, i32 1
  %119 = extractvalue { i64, i32 } %115, 1
  store i32 %119, ptr %118, align 8
  call void @llvm.memcpy.p0.p0.i64(ptr align 8 %16, ptr align 8 %18, i64 16, i1 false)
  call void @llvm.lifetime.end.p0(i64 16, ptr %18) #6
  %120 = load ptr, ptr %9, align 8
  %121 = load i32, ptr @hf_uftp_fileinfoack_tstamp, align 4
  %122 = load ptr, ptr %4, align 8
  %123 = load i32, ptr %11, align 4
  %124 = call ptr @proto_tree_add_time(ptr noundef %120, i32 noundef %121, ptr noundef %122, i32 noundef %123, i32 noundef 8, ptr noundef %16)
  %125 = load ptr, ptr %4, align 8
  %126 = call i32 @tvb_reported_length(ptr noundef %125)
  %127 = load i32, ptr %12, align 4
  %128 = sub i32 %126, %127
  %129 = udiv i32 %128, 4
  %130 = trunc i32 %129 to i16
  store i16 %130, ptr %14, align 2
  %131 = load i32, ptr %12, align 4
  store i32 %131, ptr %11, align 4
  %132 = load i16, ptr %14, align 2
  %133 = zext i16 %132 to i32
  %134 = icmp sgt i32 %133, 0
  br i1 %134, label %135, label %147

135:                                              ; preds = %63
  %136 = load ptr, ptr %9, align 8
  %137 = load i32, ptr @hf_uftp_destlist, align 4
  %138 = load ptr, ptr %4, align 8
  %139 = load i32, ptr %11, align 4
  %140 = load i16, ptr %14, align 2
  %141 = zext i16 %140 to i32
  %142 = mul i32 %141, 4
  %143 = call ptr @proto_tree_add_item(ptr noundef %136, i32 noundef %137, ptr noundef %138, i32 noundef %139, i32 noundef %142, i32 noundef 0)
  store ptr %143, ptr %8, align 8
  %144 = load ptr, ptr %8, align 8
  %145 = load i32, ptr @ett_uftp_destlist, align 4
  %146 = call ptr @proto_item_add_subtree(ptr noundef %144, i32 noundef %145)
  store ptr %146, ptr %10, align 8
  br label %147

147:                                              ; preds = %135, %63
  store i16 0, ptr %15, align 2
  br label %148

148:                                              ; preds = %162, %147
  %149 = load i16, ptr %15, align 2
  %150 = zext i16 %149 to i32
  %151 = load i16, ptr %14, align 2
  %152 = zext i16 %151 to i32
  %153 = icmp slt i32 %150, %152
  br i1 %153, label %154, label %165

154:                                              ; preds = %148
  %155 = load ptr, ptr %10, align 8
  %156 = load i32, ptr @hf_uftp_dest, align 4
  %157 = load ptr, ptr %4, align 8
  %158 = load i32, ptr %11, align 4
  %159 = call ptr @proto_tree_add_item(ptr noundef %155, i32 noundef %156, ptr noundef %157, i32 noundef %158, i32 noundef 4, i32 noundef 0)
  %160 = load i32, ptr %11, align 4
  %161 = add i32 %160, 4
  store i32 %161, ptr %11, align 4
  br label %162

162:                                              ; preds = %154
  %163 = load i16, ptr %15, align 2
  %164 = add i16 %163, 1
  store i16 %164, ptr %15, align 2
  br label %148, !llvm.loop !14

165:                                              ; preds = %148
  store i32 0, ptr %17, align 4
  br label %166

166:                                              ; preds = %165, %42, %22
  call void @llvm.lifetime.end.p0(i64 16, ptr %16) #6
  call void @llvm.lifetime.end.p0(i64 2, ptr %15) #6
  call void @llvm.lifetime.end.p0(i64 2, ptr %14) #6
  call void @llvm.lifetime.end.p0(i64 2, ptr %13) #6
  call void @llvm.lifetime.end.p0(i64 4, ptr %12) #6
  call void @llvm.lifetime.end.p0(i64 4, ptr %11) #6
  call void @llvm.lifetime.end.p0(i64 8, ptr %10) #6
  call void @llvm.lifetime.end.p0(i64 8, ptr %9) #6
  call void @llvm.lifetime.end.p0(i64 8, ptr %8) #6
  call void @llvm.lifetime.end.p0(i64 8, ptr %7) #6
  %167 = load i32, ptr %17, align 4
  switch i32 %167, label %169 [
    i32 0, label %168
    i32 1, label %168
  ]

168:                                              ; preds = %166, %166
  ret void

169:                                              ; preds = %166
  unreachable
}