; Function Attrs: null_pointer_is_valid sspstrong uwtable
define internal fastcc void @dissect_uftp_fileinfoack(ptr noundef %0, ptr noundef %1, ptr noundef %2) unnamed_addr #0 {
  %4 = alloca %struct.nstime_t, align 8
  call void @llvm.lifetime.start.p0(i64 16, ptr nonnull %4) #5
  %5 = tail call i32 @tvb_reported_length(ptr noundef %0)
  %6 = icmp ult i32 %5, 16
  br i1 %6, label %7, label %10

7:                                                ; preds = %3
  %8 = tail call i32 @tvb_reported_length(ptr noundef %0)
  %9 = tail call ptr (ptr, ptr, ptr, ptr, i32, i32, ptr, ...) @proto_tree_add_expert_format(ptr noundef %2, ptr noundef %1, ptr noundef nonnull @ei_uftp_length_invalid, ptr noundef %0, i32 noundef 0, i32 noundef -1, ptr noundef nonnull @.str.416, i32 noundef %8)
  br label %.loopexit

10:                                               ; preds = %3
  %11 = tail call zeroext i8 @tvb_get_uint8(ptr noundef %0, i32 noundef 1)
  %12 = zext i8 %11 to i32
  %13 = shl nuw nsw i32 %12, 2
  %14 = tail call i32 @tvb_reported_length(ptr noundef %0)
  %15 = icmp slt i32 %14, %13
  %16 = icmp ult i8 %11, 4
  %or.cond = select i1 %15, i1 true, i1 %16
  br i1 %or.cond, label %17, label %20

17:                                               ; preds = %10
  %18 = tail call i32 @tvb_reported_length(ptr noundef %0)
  %19 = tail call ptr (ptr, ptr, ptr, ptr, i32, i32, ptr, ...) @proto_tree_add_expert_format(ptr noundef %2, ptr noundef %1, ptr noundef nonnull @ei_uftp_length_invalid, ptr noundef %0, i32 noundef 0, i32 noundef -1, ptr noundef nonnull @.str.417, i32 noundef %18, i32 noundef %13)
  br label %.loopexit

20:                                               ; preds = %10
  %21 = tail call zeroext i16 @tvb_get_ntohs(ptr noundef %0, i32 noundef 2)
  %.not = icmp eq i16 %21, 0
  br i1 %.not, label %26, label %22

22:                                               ; preds = %20
  %23 = zext i16 %21 to i32
  %24 = getelementptr inbounds nuw i8, ptr %1, i64 8
  %25 = load ptr, ptr %24, align 8
  tail call void (ptr, i32, ptr, ...) @col_append_fstr(ptr noundef %25, i32 noundef 25, ptr noundef nonnull @.str.425, i32 noundef %23)
  br label %26

26:                                               ; preds = %22, %20
  %27 = load i32, ptr @hf_uftp_fileinfoack, align 4
  %28 = tail call ptr @proto_tree_add_item(ptr noundef %2, i32 noundef %27, ptr noundef %0, i32 noundef 0, i32 noundef -1, i32 noundef 0)
  %29 = load i32, ptr @ett_uftp_fileinfoack, align 4
  %30 = tail call ptr @proto_item_add_subtree(ptr noundef %28, i32 noundef %29)
  %31 = load i32, ptr @hf_uftp_fileinfoack_func, align 4
  %32 = tail call ptr @proto_tree_add_item(ptr noundef %30, i32 noundef %31, ptr noundef %0, i32 noundef 0, i32 noundef 1, i32 noundef 0)
  %33 = load i32, ptr @hf_uftp_fileinfoack_hlen, align 4
  %34 = tail call ptr (ptr, i32, ptr, i32, i32, i32, ptr, ...) @proto_tree_add_uint_format_value(ptr noundef %30, i32 noundef %33, ptr noundef %0, i32 noundef 1, i32 noundef 1, i32 noundef %13, ptr noundef nonnull @.str.418, i32 noundef %13, i32 noundef %12)
  %35 = load i32, ptr @hf_uftp_fileinfoack_file_id, align 4
  %36 = tail call ptr @proto_tree_add_item(ptr noundef %30, i32 noundef %35, ptr noundef %0, i32 noundef 2, i32 noundef 2, i32 noundef 0)
  %37 = load i32, ptr @hf_uftp_fileinfoack_flags, align 4
  %38 = load i32, ptr @ett_uftp_fileinfoack_flags, align 4
  %39 = tail call ptr @proto_tree_add_bitmask(ptr noundef %30, ptr noundef %0, i32 noundef 4, i32 noundef %37, i32 noundef %38, ptr noundef nonnull @fileinfoack_flags, i32 noundef 0)
  %40 = load i32, ptr @hf_uftp_fileinfoack_reserved, align 4
  %41 = tail call ptr @proto_tree_add_item(ptr noundef %30, i32 noundef %40, ptr noundef %0, i32 noundef 5, i32 noundef 3, i32 noundef 0)
  %42 = tail call i64 @tvb_get_ntoh64(ptr noundef %0, i32 noundef 8)
  %43 = udiv i64 %42, 1000000
  %44 = urem i64 %42, 1000000
  %45 = trunc nuw nsw i64 %44 to i32
  %46 = mul nuw nsw i32 %45, 1000
  store i64 %43, ptr %4, align 8
  %.sroa.4.0..sroa_idx = getelementptr inbounds nuw i8, ptr %4, i64 8
  store i32 %46, ptr %.sroa.4.0..sroa_idx, align 8
  %47 = load i32, ptr @hf_uftp_fileinfoack_tstamp, align 4
  %48 = call ptr @proto_tree_add_time(ptr noundef %30, i32 noundef %47, ptr noundef %0, i32 noundef 8, i32 noundef 8, ptr noundef nonnull %4)
  %49 = call i32 @tvb_reported_length(ptr noundef %0)
  %50 = sub i32 %49, %13
  %51 = lshr i32 %50, 2
  %52 = and i32 %51, 65535
  %.not73 = icmp eq i32 %52, 0
  br i1 %.not73, label %.loopexit, label %.lr.ph.preheader

.lr.ph.preheader:                                 ; preds = %26
  %53 = load i32, ptr @hf_uftp_destlist, align 4
  %54 = shl nuw nsw i32 %52, 2
  %55 = call ptr @proto_tree_add_item(ptr noundef %30, i32 noundef %53, ptr noundef %0, i32 noundef %13, i32 noundef %54, i32 noundef 0)
  %56 = load i32, ptr @ett_uftp_destlist, align 4
  %57 = call ptr @proto_item_add_subtree(ptr noundef %55, i32 noundef %56)
  br label %.lr.ph

.lr.ph:                                           ; preds = %.lr.ph.preheader, %.lr.ph
  %indvars.iv = phi i32 [ 0, %.lr.ph.preheader ], [ %indvars.iv.next, %.lr.ph ]
  %.06974 = phi i32 [ %13, %.lr.ph.preheader ], [ %60, %.lr.ph ]
  %58 = load i32, ptr @hf_uftp_dest, align 4
  %59 = call ptr @proto_tree_add_item(ptr noundef %57, i32 noundef %58, ptr noundef %0, i32 noundef %.06974, i32 noundef 4, i32 noundef 0)
  %60 = add nuw nsw i32 %.06974, 4
  %indvars.iv.next = add nuw nsw i32 %indvars.iv, 1
  %exitcond.not = icmp eq i32 %indvars.iv.next, %52
  br i1 %exitcond.not, label %.loopexit, label %.lr.ph, !llvm.loop !13

.loopexit:                                        ; preds = %.lr.ph, %26, %17, %7
  call void @llvm.lifetime.end.p0(i64 16, ptr nonnull %4) #5
  ret void
}